target datalayout = "e-m:e-p270:32:32-p271:32:32-p272:64:64-i64:64-i128:128-f80:128-n8:16:32:64-S128"
target triple = "x86_64-pc-linux-gnu"

%struct.jv = type { i8, i8, i16, i32, %union.anon }
%union.anon = type { ptr }
%struct.jv_refcnt = type { i32 }
%struct.jvp_string = type { %struct.jv_refcnt, i32, i32, i32, [0 x i8] }

; Function Attrs: nounwind uwtable
define internal i32 @jvp_refcnt_dec(ptr noundef %0) #0 {
  %2 = alloca ptr, align 8
  store ptr %0, ptr %2, align 8, !tbaa !83
  %3 = load ptr, ptr %2, align 8, !tbaa !83
  %4 = getelementptr inbounds nuw %struct.jv_refcnt, ptr %3, i32 0, i32 0
  %5 = load i32, ptr %4, align 4, !tbaa !68
  %6 = add nsw i32 %5, -1
  store i32 %6, ptr %4, align 4, !tbaa !68
  %7 = load ptr, ptr %2, align 8, !tbaa !83
  %8 = getelementptr inbounds nuw %struct.jv_refcnt, ptr %7, i32 0, i32 0
  %9 = load i32, ptr %8, align 4, !tbaa !68
  %10 = icmp eq i32 %9, 0
  %11 = zext i1 %10 to i32
  ret i32 %11
}

; Function Attrs: nounwind uwtable
define internal void @jvp_string_free(i64 %0, ptr %1) #0 {
  %3 = alloca %struct.jv, align 8
  %4 = alloca ptr, align 8
  %5 = getelementptr inbounds nuw { i64, ptr }, ptr %3, i32 0, i32 0
  store i64 %0, ptr %5, align 8
  %6 = getelementptr inbounds nuw { i64, ptr }, ptr %3, i32 0, i32 1
  store ptr %1, ptr %6, align 8
  call void @llvm.lifetime.start.p0(i64 8, ptr %4) #11
  %7 = getelementptr inbounds nuw { i64, ptr }, ptr %3, i32 0, i32 0
  %8 = load i64, ptr %7, align 8
  %9 = getelementptr inbounds nuw { i64, ptr }, ptr %3, i32 0, i32 1
  %10 = load ptr, ptr %9, align 8
  %11 = call ptr @jvp_string_ptr(i64 %8, ptr %10)
  store ptr %11, ptr %4, align 8, !tbaa !14
  %12 = load ptr, ptr %4, align 8, !tbaa !14
  %13 = getelementptr inbounds nuw %struct.jvp_string, ptr %12, i32 0, i32 0
  %14 = call i32 @jvp_refcnt_dec(ptr noundef %13)
  %15 = icmp ne i32 %14, 0
  br i1 %15, label %16, label %18

16:                                               ; preds = %2
  %17 = load ptr, ptr %4, align 8, !tbaa !14
  call void @jv_mem_free(ptr noundef %17)
  br label %18

18:                                               ; preds = %16, %2
  call void @llvm.lifetime.end.p0(i64 8, ptr %4) #11
  ret void
}

; Function Attrs: nounwind uwtable
define internal ptr @jvp_string_alloc(i32 noundef %0) #0 {
  %2 = alloca i32, align 4
  %3 = alloca ptr, align 8
  store i32 %0, ptr %2, align 4, !tbaa !10
  call void @llvm.lifetime.start.p0(i64 8, ptr %3) #11
  %4 = load i32, ptr %2, align 4, !tbaa !10
  %5 = zext i32 %4 to i64
  %6 = add i64 16, %5
  %7 = add i64 %6, 1
  %8 = call ptr @jv_mem_alloc(i64 noundef %7)
  store ptr %8, ptr %3, align 8, !tbaa !14
  %9 = load ptr, ptr %3, align 8, !tbaa !14
  %10 = getelementptr inbounds nuw %struct.jvp_string, ptr %9, i32 0, i32 0
  %11 = getelementptr inbounds nuw %struct.jv_refcnt, ptr %10, i32 0, i32 0
  store i32 1, ptr %11, align 4, !tbaa !68
  %12 = load i32, ptr %2, align 4, !tbaa !10
  %13 = load ptr, ptr %3, align 8, !tbaa !14
  %14 = getelementptr inbounds nuw %struct.jvp_string, ptr %13, i32 0, i32 3
  store i32 %12, ptr %14, align 4, !tbaa !10
  %15 = load ptr, ptr %3, align 8, !tbaa !14
  call void @llvm.lifetime.end.p0(i64 8, ptr %3) #11
  ret ptr %15
}

; Function Attrs: nounwind uwtable
define internal i32 @jvp_string_remaining_space(ptr noundef %0) #0 {
  %2 = alloca ptr, align 8
  %3 = alloca i32, align 4
  store ptr %0, ptr %2, align 8, !tbaa !14
  call void @llvm.lifetime.start.p0(i64 4, ptr %3) #11
  %4 = load ptr, ptr %2, align 8, !tbaa !14
  %5 = getelementptr inbounds nuw %struct.jvp_string, ptr %4, i32 0, i32 3
  %6 = load i32, ptr %5, align 4, !tbaa !10
  %7 = load ptr, ptr %2, align 8, !tbaa !14
  %8 = call i32 @jvp_string_length(ptr noundef %7)
  %9 = sub i32 %6, %8
  store i32 %9, ptr %3, align 4, !tbaa !10
  %10 = load i32, ptr %3, align 4, !tbaa !10
  call void @llvm.lifetime.end.p0(i64 4, ptr %3) #11
  ret i32 %10
}

; Function Attrs: nounwind uwtable
define internal i32 @jvp_refcnt_unshared(ptr noundef %0) #0 {
  %2 = alloca ptr, align 8
  store ptr %0, ptr %2, align 8, !tbaa !83
  %3 = load ptr, ptr %2, align 8, !tbaa !83
  %4 = getelementptr inbounds nuw %struct.jv_refcnt, ptr %3, i32 0, i32 0
  %5 = load i32, ptr %4, align 4, !tbaa !68
  %6 = icmp eq i32 %5, 1
  %7 = zext i1 %6 to i32
  ret i32 %7
}

; Function Attrs: nounwind uwtable
define internal i32 @jvp_string_length(ptr noundef %0) #0 {
  %2 = alloca ptr, align 8
  store ptr %0, ptr %2, align 8, !tbaa !14
  %3 = load ptr, ptr %2, align 8, !tbaa !14
  %4 = getelementptr inbounds nuw %struct.jvp_string, ptr %3, i32 0, i32 2
  %5 = load i32, ptr %4, align 4, !tbaa !10
  %6 = lshr i32 %5, 1
  ret i32 %6
}

; Function Attrs: nounwind uwtable
define internal ptr @jvp_string_ptr(i64 %0, ptr %1) #0 {
  %3 = alloca %struct.jv, align 8
  %4 = getelementptr inbounds nuw { i64, ptr }, ptr %3, i32 0, i32 0
  store i64 %0, ptr %4, align 8
  %5 = getelementptr inbounds nuw { i64, ptr }, ptr %3, i32 0, i32 1
  store ptr %1, ptr %5, align 8
  %6 = getelementptr inbounds nuw %struct.jv, ptr %3, i32 0, i32 4
  %7 = load ptr, ptr %6, align 8, !tbaa !12
  ret ptr %7
}

; Function Attrs: nounwind uwtable
define internal { i64, ptr } @jvp_string_append(i64 %0, ptr %1, ptr noundef %2, i32 noundef %3) #0 {
  %5 = alloca %struct.jv, align 8
  %6 = alloca %struct.jv, align 8
  %7 = alloca ptr, align 8
  %8 = alloca i32, align 4
  %9 = alloca ptr, align 8
  %10 = alloca i32, align 4
  %11 = alloca i32, align 4
  %12 = alloca i32, align 4
  %13 = alloca ptr, align 8
  %14 = getelementptr inbounds nuw { i64, ptr }, ptr %6, i32 0, i32 0
  store i64 %0, ptr %14, align 8
  %15 = getelementptr inbounds nuw { i64, ptr }, ptr %6, i32 0, i32 1
  store ptr %1, ptr %15, align 8
  store ptr %2, ptr %7, align 8, !tbaa !30
  store i32 %3, ptr %8, align 4, !tbaa !10
  call void @llvm.lifetime.start.p0(i64 8, ptr %9) #11
  %16 = getelementptr inbounds nuw { i64, ptr }, ptr %6, i32 0, i32 0
  %17 = load i64, ptr %16, align 8
  %18 = getelementptr inbounds nuw { i64, ptr }, ptr %6, i32 0, i32 1
  %19 = load ptr, ptr %18, align 8
  %20 = call ptr @jvp_string_ptr(i64 %17, ptr %19)
  store ptr %20, ptr %9, align 8, !tbaa !14
  call void @llvm.lifetime.start.p0(i64 4, ptr %10) #11
  %21 = load ptr, ptr %9, align 8, !tbaa !14
  %22 = call i32 @jvp_string_length(ptr noundef %21)
  store i32 %22, ptr %10, align 4, !tbaa !10
  %23 = getelementptr inbounds nuw %struct.jv, ptr %6, i32 0, i32 4
  %24 = load ptr, ptr %23, align 8, !tbaa !12
  %25 = call i32 @jvp_refcnt_unshared(ptr noundef %24)
  %26 = icmp ne i32 %25, 0
  br i1 %26, label %27, label %55

27:                                               ; preds = %4
  %28 = load ptr, ptr %9, align 8, !tbaa !14
  %29 = call i32 @jvp_string_remaining_space(ptr noundef %28)
  %30 = load i32, ptr %8, align 4, !tbaa !10
  %31 = icmp uge i32 %29, %30
  br i1 %31, label %32, label %55

32:                                               ; preds = %27
  %33 = load ptr, ptr %9, align 8, !tbaa !14
  %34 = getelementptr inbounds nuw %struct.jvp_string, ptr %33, i32 0, i32 4
  %35 = getelementptr inbounds [0 x i8], ptr %34, i64 0, i64 0
  %36 = load i32, ptr %10, align 4, !tbaa !10
  %37 = zext i32 %36 to i64
  %38 = getelementptr inbounds nuw i8, ptr %35, i64 %37
  %39 = load ptr, ptr %7, align 8, !tbaa !30
  %40 = load i32, ptr %8, align 4, !tbaa !10
  %41 = zext i32 %40 to i64
  call void @llvm.memcpy.p0.p0.i64(ptr align 1 %38, ptr align 1 %39, i64 %41, i1 false)
  %42 = load ptr, ptr %9, align 8, !tbaa !14
  %43 = getelementptr inbounds nuw %struct.jvp_string, ptr %42, i32 0, i32 4
  %44 = load i32, ptr %10, align 4, !tbaa !10
  %45 = load i32, ptr %8, align 4, !tbaa !10
  %46 = add i32 %44, %45
  %47 = zext i32 %46 to i64
  %48 = getelementptr inbounds nuw [0 x i8], ptr %43, i64 0, i64 %47
  store i8 0, ptr %48, align 1, !tbaa !12
  %49 = load i32, ptr %10, align 4, !tbaa !10
  %50 = load i32, ptr %8, align 4, !tbaa !10
  %51 = add i32 %49, %50
  %52 = shl i32 %51, 1
  %53 = load ptr, ptr %9, align 8, !tbaa !14
  %54 = getelementptr inbounds nuw %struct.jvp_string, ptr %53, i32 0, i32 2
  store i32 %52, ptr %54, align 4, !tbaa !10
  call void @llvm.memcpy.p0.p0.i64(ptr align 8 %5, ptr align 8 %6, i64 16, i1 false), !tbaa.struct !11
  store i32 1, ptr %11, align 4
  br label %107

55:                                               ; preds = %27, %4
  call void @llvm.lifetime.start.p0(i64 4, ptr %12) #11
  %56 = load i32, ptr %10, align 4, !tbaa !10
  %57 = load i32, ptr %8, align 4, !tbaa !10
  %58 = add i32 %56, %57
  %59 = mul i32 %58, 2
  store i32 %59, ptr %12, align 4, !tbaa !10
  %60 = load i32, ptr %12, align 4, !tbaa !10
  %61 = icmp ult i32 %60, 32
  br i1 %61, label %62, label %63

62:                                               ; preds = %55
  store i32 32, ptr %12, align 4, !tbaa !10
  br label %63

63:                                               ; preds = %62, %55
  call void @llvm.lifetime.start.p0(i64 8, ptr %13) #11
  %64 = load i32, ptr %12, align 4, !tbaa !10
  %65 = call ptr @jvp_string_alloc(i32 noundef %64)
  store ptr %65, ptr %13, align 8, !tbaa !14
  %66 = load i32, ptr %10, align 4, !tbaa !10
  %67 = load i32, ptr %8, align 4, !tbaa !10
  %68 = add i32 %66, %67
  %69 = shl i32 %68, 1
  %70 = load ptr, ptr %13, align 8, !tbaa !14
  %71 = getelementptr inbounds nuw %struct.jvp_string, ptr %70, i32 0, i32 2
  store i32 %69, ptr %71, align 4, !tbaa !10
  %72 = load ptr, ptr %13, align 8, !tbaa !14
  %73 = getelementptr inbounds nuw %struct.jvp_string, ptr %72, i32 0, i32 4
  %74 = getelementptr inbounds [0 x i8], ptr %73, i64 0, i64 0
  %75 = load ptr, ptr %9, align 8, !tbaa !14
  %76 = getelementptr inbounds nuw %struct.jvp_string, ptr %75, i32 0, i32 4
  %77 = getelementptr inbounds [0 x i8], ptr %76, i64 0, i64 0
  %78 = load i32, ptr %10, align 4, !tbaa !10
  %79 = zext i32 %78 to i64
  call void @llvm.memcpy.p0.p0.i64(ptr align 4 %74, ptr align 4 %77, i64 %79, i1 false)
  %80 = load ptr, ptr %13, align 8, !tbaa !14
  %81 = getelementptr inbounds nuw %struct.jvp_string, ptr %80, i32 0, i32 4
  %82 = getelementptr inbounds [0 x i8], ptr %81, i64 0, i64 0
  %83 = load i32, ptr %10, align 4, !tbaa !10
  %84 = zext i32 %83 to i64
  %85 = getelementptr inbounds nuw i8, ptr %82, i64 %84
  %86 = load ptr, ptr %7, align 8, !tbaa !30
  %87 = load i32, ptr %8, align 4, !tbaa !10
  %88 = zext i32 %87 to i64
  call void @llvm.memcpy.p0.p0.i64(ptr align 1 %85, ptr align 1 %86, i64 %88, i1 false)
  %89 = load ptr, ptr %13, align 8, !tbaa !14
  %90 = getelementptr inbounds nuw %struct.jvp_string, ptr %89, i32 0, i32 4
  %91 = load i32, ptr %10, align 4, !tbaa !10
  %92 = load i32, ptr %8, align 4, !tbaa !10
  %93 = add i32 %91, %92
  %94 = zext i32 %93 to i64
  %95 = getelementptr inbounds nuw [0 x i8], ptr %90, i64 0, i64 %94
  store i8 0, ptr %95, align 1, !tbaa !12
  %96 = getelementptr inbounds nuw { i64, ptr }, ptr %6, i32 0, i32 0
  %97 = load i64, ptr %96, align 8
  %98 = getelementptr inbounds nuw { i64, ptr }, ptr %6, i32 0, i32 1
  %99 = load ptr, ptr %98, align 8
  call void @jvp_string_free(i64 %97, ptr %99)
  %100 = getelementptr inbounds nuw %struct.jv, ptr %5, i32 0, i32 0
  store i8 -123, ptr %100, align 8, !tbaa !4
  %101 = getelementptr inbounds nuw %struct.jv, ptr %5, i32 0, i32 1
  store i8 0, ptr %101, align 1, !tbaa !17
  %102 = getelementptr inbounds nuw %struct.jv, ptr %5, i32 0, i32 2
  store i16 0, ptr %102, align 2, !tbaa !18
  %103 = getelementptr inbounds nuw %struct.jv, ptr %5, i32 0, i32 3
  store i32 0, ptr %103, align 4, !tbaa !19
  %104 = getelementptr inbounds nuw %struct.jv, ptr %5, i32 0, i32 4
  %105 = load ptr, ptr %13, align 8, !tbaa !14
  %106 = getelementptr inbounds nuw %struct.jvp_string, ptr %105, i32 0, i32 0
  store ptr %106, ptr %104, align 8, !tbaa !12
  store i32 1, ptr %11, align 4
  call void @llvm.lifetime.end.p0(i64 8, ptr %13) #11
  call void @llvm.lifetime.end.p0(i64 4, ptr %12) #11
  br label %107

107:                                              ; preds = %63, %32
  call void @llvm.lifetime.end.p0(i64 4, ptr %10) #11
  call void @llvm.lifetime.end.p0(i64 8, ptr %9) #11
  %108 = load { i64, ptr }, ptr %5, align 8
  ret { i64, ptr } %108
}

; Function Attrs: nounwind uwtable
define dso_local { i64, ptr } @jv_string_append_codepoint(i64 %0, ptr %1, i32 noundef %2) #0 {
  %4 = alloca %struct.jv, align 8
  %5 = alloca %struct.jv, align 8
  %6 = alloca i32, align 4
  %7 = alloca [5 x i8], align 1
  %8 = alloca i32, align 4
  %9 = alloca %struct.jv, align 8
  %10 = getelementptr inbounds nuw { i64, ptr }, ptr %5, i32 0, i32 0
  store i64 %0, ptr %10, align 8
  %11 = getelementptr inbounds nuw { i64, ptr }, ptr %5, i32 0, i32 1
  store ptr %1, ptr %11, align 8
  store i32 %2, ptr %6, align 4, !tbaa !10
  call void @llvm.lifetime.start.p0(i64 5, ptr %7) #11
  call void @llvm.lifetime.start.p0(i64 4, ptr %8) #11
  %12 = load i32, ptr %6, align 4, !tbaa !10
  %13 = getelementptr inbounds [5 x i8], ptr %7, i64 0, i64 0
  %14 = call i32 @jvp_utf8_encode(i32 noundef %12, ptr noundef %13)
  store i32 %14, ptr %8, align 4, !tbaa !10
  call void @llvm.lifetime.start.p0(i64 16, ptr %9) #11
  %15 = getelementptr inbounds [5 x i8], ptr %7, i64 0, i64 0
  %16 = load i32, ptr %8, align 4, !tbaa !10
  %17 = getelementptr inbounds nuw { i64, ptr }, ptr %5, i32 0, i32 0
  %18 = load i64, ptr %17, align 8
  %19 = getelementptr inbounds nuw { i64, ptr }, ptr %5, i32 0, i32 1
  %20 = load ptr, ptr %19, align 8
  %21 = call { i64, ptr } @jvp_string_append(i64 %18, ptr %20, ptr noundef %15, i32 noundef %16)
  %22 = getelementptr inbounds nuw { i64, ptr }, ptr %9, i32 0, i32 0
  %23 = extractvalue { i64, ptr } %21, 0
  store i64 %23, ptr %22, align 8
  %24 = getelementptr inbounds nuw { i64, ptr }, ptr %9, i32 0, i32 1
  %25 = extractvalue { i64, ptr } %21, 1
  store ptr %25, ptr %24, align 8
  call void @llvm.memcpy.p0.p0.i64(ptr align 8 %5, ptr align 8 %9, i64 16, i1 false), !tbaa.struct !11
  call void @llvm.lifetime.end.p0(i64 16, ptr %9) #11
  call void @llvm.memcpy.p0.p0.i64(ptr align 8 %4, ptr align 8 %5, i64 16, i1 false), !tbaa.struct !11
  call void @llvm.lifetime.end.p0(i64 4, ptr %8) #11
  call void @llvm.lifetime.end.p0(i64 5, ptr %7) #11
  %26 = load { i64, ptr }, ptr %4, align 8
  ret { i64, ptr } %26
}