; Function Attrs: nounwind uwtable
define dso_local { i64, ptr } @jv_string_append_codepoint(i64 %0, ptr %1, i32 noundef %2) local_unnamed_addr #2 {
  %4 = alloca [5 x i8], align 1
  call void @llvm.lifetime.start.p0(i64 5, ptr nonnull %4) #25
  %5 = call i32 @jvp_utf8_encode(i32 noundef %2, ptr noundef nonnull %4) #25
  %6 = getelementptr i8, ptr %1, i64 8
  %.val36.i = load i32, ptr %6, align 4, !tbaa !4
  %7 = lshr i32 %.val36.i, 1
  %.val.i = load i32, ptr %1, align 4, !tbaa !9
  %.not.i = icmp eq i32 %.val.i, 1
  br i1 %.not.i, label %8, label %20

8:                                                ; preds = %3
  %9 = getelementptr i8, ptr %1, i64 12
  %.val38.i = load i32, ptr %9, align 4, !tbaa !4
  %10 = sub i32 %.val38.i, %7
  %.not35.i = icmp ult i32 %10, %5
  br i1 %.not35.i, label %20, label %11

11:                                               ; preds = %8
  %12 = getelementptr inbounds nuw i8, ptr %1, i64 16
  %13 = zext nneg i32 %7 to i64
  %14 = getelementptr inbounds nuw i8, ptr %12, i64 %13
  %15 = zext i32 %5 to i64
  call void @llvm.memcpy.p0.p0.i64(ptr nonnull align 1 %14, ptr nonnull readonly align 1 %4, i64 %15, i1 false)
  %16 = add i32 %7, %5
  %17 = zext i32 %16 to i64
  %18 = getelementptr inbounds nuw [0 x i8], ptr %12, i64 0, i64 %17
  store i8 0, ptr %18, align 1, !tbaa !8
  %19 = shl i32 %16, 1
  store i32 %19, ptr %6, align 4, !tbaa !4
  br label %jvp_string_append.exit

20:                                               ; preds = %8, %3
  %21 = add i32 %7, %5
  %22 = shl i32 %21, 1
  %spec.store.select.i = call i32 @llvm.umax.i32(i32 %22, i32 32)
  %23 = zext i32 %spec.store.select.i to i64
  %24 = add nuw nsw i64 %23, 17
  %25 = call noundef ptr @jv_mem_alloc(i64 noundef %24) #25
  store i32 1, ptr %25, align 4, !tbaa !9
  %26 = getelementptr inbounds nuw i8, ptr %25, i64 12
  store i32 %spec.store.select.i, ptr %26, align 4, !tbaa !4
  %27 = getelementptr inbounds nuw i8, ptr %25, i64 8
  store i32 %22, ptr %27, align 4, !tbaa !4
  %28 = getelementptr inbounds nuw i8, ptr %25, i64 16
  %29 = getelementptr inbounds nuw i8, ptr %1, i64 16
  %30 = zext nneg i32 %7 to i64
  call void @llvm.memcpy.p0.p0.i64(ptr nonnull align 4 %28, ptr nonnull align 4 %29, i64 %30, i1 false)
  %31 = getelementptr inbounds nuw i8, ptr %28, i64 %30
  %32 = zext i32 %5 to i64
  call void @llvm.memcpy.p0.p0.i64(ptr nonnull align 1 %31, ptr nonnull readonly align 1 %4, i64 %32, i1 false)
  %33 = zext i32 %21 to i64
  %34 = getelementptr inbounds nuw [0 x i8], ptr %28, i64 0, i64 %33
  store i8 0, ptr %34, align 1, !tbaa !8
  %35 = load i32, ptr %1, align 4, !tbaa !9
  %36 = add nsw i32 %35, -1
  store i32 %36, ptr %1, align 4, !tbaa !9
  %.not.i.i = icmp eq i32 %36, 0
  br i1 %.not.i.i, label %37, label %jvp_string_append.exit

37:                                               ; preds = %20
  call void @jv_mem_free(ptr noundef nonnull %1) #25
  br label %jvp_string_append.exit

jvp_string_append.exit:                           ; preds = %11, %20, %37
  %.sroa.6.0.i = phi ptr [ %1, %11 ], [ %25, %20 ], [ %25, %37 ]
  %.sroa.033.0.insert.insert.i = phi i64 [ %0, %11 ], [ 133, %20 ], [ 133, %37 ]
  %.fca.0.insert.i = insertvalue { i64, ptr } poison, i64 %.sroa.033.0.insert.insert.i, 0
  %.fca.1.insert.i = insertvalue { i64, ptr } %.fca.0.insert.i, ptr %.sroa.6.0.i, 1
  call void @llvm.lifetime.end.p0(i64 5, ptr nonnull %4) #25
  ret { i64, ptr } %.fca.1.insert.i
}